target datalayout = "e-m:e-p270:32:32-p271:32:32-p272:64:64-i64:64-i128:128-f80:128-n8:16:32:64-S128"
target triple = "x86_64-pc-linux-gnu"

%class.symbol = type { ptr }
%class.z3_replayer = type { ptr }
%"struct.z3_replayer::imp" = type { ptr, ptr, i32, i32, %class.svector, %class.symbol, i64, i64, double, float, i64, %class.size_t_map, %class.svector.0, %"class.std::vector", %class.svector.5, ptr, %class.vector.7, %class.vector.8, %class.vector.9, %class.vector.10 }
%class.svector = type { %class.vector }
%class.vector = type { ptr }
%class.size_t_map = type { %class.map }
%class.map = type { %class.table2map }
%class.table2map = type { %class.core_hashtable }
%class.core_hashtable = type <{ ptr, i32, i32, i32, [4 x i8] }>
%class.svector.0 = type { %class.vector.1 }
%class.vector.1 = type { ptr }
%"class.std::vector" = type { %"struct.std::_Vector_base" }
%"struct.std::_Vector_base" = type { %"struct.std::_Vector_base<std::__cxx11::basic_string<char>, std::allocator<std::__cxx11::basic_string<char>>>::_Vector_impl" }
%"struct.std::_Vector_base<std::__cxx11::basic_string<char>, std::allocator<std::__cxx11::basic_string<char>>>::_Vector_impl" = type { %"struct.std::_Vector_base<std::__cxx11::basic_string<char>, std::allocator<std::__cxx11::basic_string<char>>>::_Vector_impl_data" }
%"struct.std::_Vector_base<std::__cxx11::basic_string<char>, std::allocator<std::__cxx11::basic_string<char>>>::_Vector_impl_data" = type { ptr, ptr, ptr }
%class.svector.5 = type { %class.vector.6 }
%class.vector.6 = type { ptr }
%class.vector.7 = type { ptr }
%class.vector.8 = type { ptr }
%class.vector.9 = type { ptr }
%class.vector.10 = type { ptr }
%"struct.z3_replayer::imp::value" = type { i32, %union.anon.18 }
%union.anon.18 = type { i64 }

; Function Attrs: mustprogress nounwind uwtable
define linkonce_odr hidden noundef nonnull align 8 dereferenceable(16) ptr @_ZN6vectorIN11z3_replayer3imp5valueELb0EjEixEj(ptr noundef nonnull align 8 dereferenceable(8) %0, i32 noundef %1) #6 comdat align 2 {
  %3 = alloca ptr, align 8
  %4 = alloca i32, align 4
  store ptr %0, ptr %3, align 8, !tbaa !124
  store i32 %1, ptr %4, align 4, !tbaa !57
  %5 = load ptr, ptr %3, align 8
  %6 = getelementptr inbounds nuw %class.vector.6, ptr %5, i32 0, i32 0
  %7 = load ptr, ptr %6, align 8, !tbaa !172
  %8 = load i32, ptr %4, align 4, !tbaa !57
  %9 = zext i32 %8 to i64
  %10 = getelementptr inbounds nuw %"struct.z3_replayer::imp::value", ptr %7, i64 %9
  ret ptr %10
}

; Function Attrs: mustprogress uwtable
define linkonce_odr hidden noundef ptr @_ZN11z3_replayer3imp15get_uint64_addrEj(ptr noundef nonnull align 8 dereferenceable(184) %0, i32 noundef %1) #4 comdat align 2 {
  %3 = alloca ptr, align 8
  %4 = alloca i32, align 4
  store ptr %0, ptr %3, align 8, !tbaa !23
  store i32 %1, ptr %4, align 4, !tbaa !57
  %5 = load ptr, ptr %3, align 8
  %6 = load i32, ptr %4, align 4, !tbaa !57
  call void @_ZNK11z3_replayer3imp9check_argEjNS0_10value_kindE(ptr noundef nonnull align 8 dereferenceable(184) %5, i32 noundef %6, i32 noundef 1)
  %7 = getelementptr inbounds nuw %"struct.z3_replayer::imp", ptr %5, i32 0, i32 14
  %8 = load i32, ptr %4, align 4, !tbaa !57
  %9 = call noundef nonnull align 8 dereferenceable(16) ptr @_ZN6vectorIN11z3_replayer3imp5valueELb0EjEixEj(ptr noundef nonnull align 8 dereferenceable(8) %7, i32 noundef %8)
  %10 = getelementptr inbounds nuw %"struct.z3_replayer::imp::value", ptr %9, i32 0, i32 1
  ret ptr %10
}

; Function Attrs: mustprogress uwtable
define hidden noundef ptr @_ZN11z3_replayer15get_uint64_addrEj(ptr noundef nonnull align 8 dereferenceable(8) %0, i32 noundef %1) #4 align 2 {
  %3 = alloca ptr, align 8
  %4 = alloca i32, align 4
  store ptr %0, ptr %3, align 8, !tbaa !16
  store i32 %1, ptr %4, align 4, !tbaa !57
  %5 = load ptr, ptr %3, align 8
  %6 = getelementptr inbounds nuw %class.z3_replayer, ptr %5, i32 0, i32 0
  %7 = load ptr, ptr %6, align 8, !tbaa !20
  %8 = load i32, ptr %4, align 4, !tbaa !57
  %9 = call noundef ptr @_ZN11z3_replayer3imp15get_uint64_addrEj(ptr noundef nonnull align 8 dereferenceable(184) %7, i32 noundef %8)
  ret ptr %9
}